target datalayout = "e-m:e-p270:32:32-p271:32:32-p272:64:64-i64:64-i128:128-f80:128-n8:16:32:64-S128"
target triple = "x86_64-pc-linux-gnu"

%struct.lua_State = type { %struct.GCRef, i8, i8, i8, i8, %struct.MRef, %struct.GCRef, ptr, ptr, %struct.MRef, %struct.MRef, %struct.GCRef, %struct.GCRef, ptr, i32 }
%struct.MRef = type { i64 }
%struct.GCRef = type { i64 }
%union.TValue = type { i64 }
%struct.GCstr = type { %struct.GCRef, i8, i8, i8, i8, i32, i32, i32 }

; Function Attrs: nounwind uwtable
define internal i32 @lj_cf_dofile(ptr noundef %0) #3 {
  %2 = alloca ptr, align 8
  %3 = alloca ptr, align 8
  store ptr %0, ptr %2, align 8, !tbaa !4
  call void @llvm.lifetime.start.p0(i64 8, ptr %3) #11
  %4 = load ptr, ptr %2, align 8, !tbaa !4
  %5 = call ptr @lj_lib_optstr(ptr noundef %4, i32 noundef 1)
  store ptr %5, ptr %3, align 8, !tbaa !30
  %6 = load ptr, ptr %2, align 8, !tbaa !4
  %7 = getelementptr inbounds nuw %struct.lua_State, ptr %6, i32 0, i32 8
  %8 = load ptr, ptr %7, align 8, !tbaa !9
  store i64 -1, ptr %8, align 8, !tbaa !16
  %9 = load ptr, ptr %2, align 8, !tbaa !4
  %10 = getelementptr inbounds nuw %struct.lua_State, ptr %9, i32 0, i32 7
  %11 = load ptr, ptr %10, align 8, !tbaa !32
  %12 = getelementptr inbounds %union.TValue, ptr %11, i64 1
  %13 = load ptr, ptr %2, align 8, !tbaa !4
  %14 = getelementptr inbounds nuw %struct.lua_State, ptr %13, i32 0, i32 8
  store ptr %12, ptr %14, align 8, !tbaa !9
  %15 = load ptr, ptr %2, align 8, !tbaa !4
  %16 = load ptr, ptr %3, align 8, !tbaa !30
  %17 = icmp ne ptr %16, null
  br i1 %17, label %18, label %21

18:                                               ; preds = %1
  %19 = load ptr, ptr %3, align 8, !tbaa !30
  %20 = getelementptr inbounds %struct.GCstr, ptr %19, i64 1
  br label %22

21:                                               ; preds = %1
  br label %22

22:                                               ; preds = %21, %18
  %23 = phi ptr [ %20, %18 ], [ null, %21 ]
  %24 = call i32 @luaL_loadfile(ptr noundef %15, ptr noundef %23)
  %25 = icmp ne i32 %24, 0
  br i1 %25, label %26, label %29

26:                                               ; preds = %22
  %27 = load ptr, ptr %2, align 8, !tbaa !4
  %28 = call i32 @lua_error(ptr noundef %27)
  br label %29

29:                                               ; preds = %26, %22
  %30 = load ptr, ptr %2, align 8, !tbaa !4
  call void @lua_call(ptr noundef %30, i32 noundef 0, i32 noundef -1)
  %31 = load ptr, ptr %2, align 8, !tbaa !4
  %32 = getelementptr inbounds nuw %struct.lua_State, ptr %31, i32 0, i32 8
  %33 = load ptr, ptr %32, align 8, !tbaa !9
  %34 = load ptr, ptr %2, align 8, !tbaa !4
  %35 = getelementptr inbounds nuw %struct.lua_State, ptr %34, i32 0, i32 7
  %36 = load ptr, ptr %35, align 8, !tbaa !32
  %37 = ptrtoint ptr %33 to i64
  %38 = ptrtoint ptr %36 to i64
  %39 = sub i64 %37, %38
  %40 = sdiv exact i64 %39, 8
  %41 = trunc i64 %40 to i32
  %42 = sub nsw i32 %41, 1
  call void @llvm.lifetime.end.p0(i64 8, ptr %3) #11
  ret i32 %42
}