; Function Attrs: nounwind uwtable
define internal range(i32 -2147483648, 2147483647) i32 @lj_cf_dofile(ptr noundef %0) #2 {
  %2 = tail call ptr @lj_lib_optstr(ptr noundef %0, i32 noundef 1) #11
  %3 = getelementptr inbounds nuw i8, ptr %0, i64 40
  %4 = load ptr, ptr %3, align 8, !tbaa !4
  store i64 -1, ptr %4, align 8, !tbaa !14
  %5 = getelementptr inbounds nuw i8, ptr %0, i64 32
  %6 = load ptr, ptr %5, align 8, !tbaa !19
  %7 = getelementptr inbounds nuw i8, ptr %6, i64 8
  store ptr %7, ptr %3, align 8, !tbaa !4
  %.not = icmp eq ptr %2, null
  %8 = getelementptr inbounds nuw i8, ptr %2, i64 24
  %9 = select i1 %.not, ptr null, ptr %8
  %10 = tail call i32 @luaL_loadfile(ptr noundef %0, ptr noundef %9) #11
  %.not11 = icmp eq i32 %10, 0
  br i1 %.not11, label %13, label %11

11:                                               ; preds = %1
  %12 = tail call i32 @lua_error(ptr noundef nonnull %0) #11
  br label %13

13:                                               ; preds = %11, %1
  tail call void @lua_call(ptr noundef nonnull %0, i32 noundef 0, i32 noundef -1) #11
  %14 = load ptr, ptr %3, align 8, !tbaa !4
  %15 = load ptr, ptr %5, align 8, !tbaa !19
  %16 = ptrtoint ptr %14 to i64
  %17 = ptrtoint ptr %15 to i64
  %18 = sub i64 %16, %17
  %19 = lshr exact i64 %18, 3
  %20 = trunc i64 %19 to i32
  %21 = add nsw i32 %20, -1
  ret i32 %21
}